; Function Attrs: mustprogress nofree norecurse nosync nounwind willreturn memory(read, inaccessiblemem: none) uwtable
define hidden noundef zeroext i1 @_ZN6spacer5lemma11has_bindingERK10ref_vectorI3app11ast_managerE(ptr noundef nonnull readonly align 8 captures(none) dereferenceable(109) %0, ptr noundef nonnull readonly align 8 captures(none) dereferenceable(16) %1) local_unnamed_addr #7 align 2 {
  %3 = getelementptr inbounds nuw i8, ptr %0, i64 56
  %4 = load ptr, ptr %3, align 8, !tbaa !95
  %5 = icmp eq ptr %4, null
  br i1 %5, label %_ZNK15ref_vector_coreI3app19ref_manager_wrapperIS0_11ast_managerEE4sizeEv.exit.thread, label %_ZNK15ref_vector_coreI3app19ref_manager_wrapperIS0_11ast_managerEE4sizeEv.exit

_ZNK15ref_vector_coreI3app19ref_manager_wrapperIS0_11ast_managerEE4sizeEv.exit: ; preds = %2
  %6 = getelementptr inbounds i8, ptr %4, i64 -4
  %7 = load i32, ptr %6, align 4, !tbaa !100
  %8 = icmp eq i32 %7, 0
  br i1 %8, label %_ZNK15ref_vector_coreI3app19ref_manager_wrapperIS0_11ast_managerEE4sizeEv.exit.thread, label %9

9:                                                ; preds = %_ZNK15ref_vector_coreI3app19ref_manager_wrapperIS0_11ast_managerEE4sizeEv.exit
  %10 = getelementptr inbounds nuw i8, ptr %0, i64 72
  %11 = load ptr, ptr %10, align 8, !tbaa !95
  %12 = icmp eq ptr %11, null
  br i1 %12, label %_ZNK15ref_vector_coreI3app19ref_manager_wrapperIS0_11ast_managerEE4sizeEv.exit.thread, label %_ZNK15ref_vector_coreI3app19ref_manager_wrapperIS0_11ast_managerEE4sizeEv.exit26

_ZNK15ref_vector_coreI3app19ref_manager_wrapperIS0_11ast_managerEE4sizeEv.exit26: ; preds = %9
  %13 = getelementptr inbounds i8, ptr %11, i64 -4
  %14 = load i32, ptr %13, align 4, !tbaa !100
  %.not2429.not = icmp eq i32 %14, 0
  br i1 %.not2429.not, label %_ZNK15ref_vector_coreI3app19ref_manager_wrapperIS0_11ast_managerEE4sizeEv.exit.thread, label %.preheader.lr.ph

.preheader.lr.ph:                                 ; preds = %_ZNK15ref_vector_coreI3app19ref_manager_wrapperIS0_11ast_managerEE4sizeEv.exit26
  %15 = getelementptr inbounds nuw i8, ptr %1, i64 8
  %16 = load ptr, ptr %15, align 8, !tbaa !95
  %wide.trip.count = zext i32 %7 to i64
  br label %.preheader

.preheader:                                       ; preds = %26, %.preheader.lr.ph
  %.01930 = phi i32 [ 0, %.preheader.lr.ph ], [ %27, %26 ]
  br label %17

17:                                               ; preds = %.preheader, %25
  %indvars.iv = phi i64 [ 0, %.preheader ], [ %indvars.iv.next, %25 ]
  %18 = trunc nuw i64 %indvars.iv to i32
  %19 = add i32 %.01930, %18
  %20 = zext i32 %19 to i64
  %21 = getelementptr inbounds nuw ptr, ptr %11, i64 %20
  %22 = load ptr, ptr %21, align 8, !tbaa !107
  %23 = getelementptr inbounds nuw ptr, ptr %16, i64 %indvars.iv
  %24 = load ptr, ptr %23, align 8, !tbaa !107
  %.not = icmp eq ptr %22, %24
  br i1 %.not, label %25, label %26

25:                                               ; preds = %17
  %indvars.iv.next = add nuw nsw i64 %indvars.iv, 1
  %exitcond.not = icmp eq i64 %indvars.iv.next, %wide.trip.count
  br i1 %exitcond.not, label %26, label %17, !llvm.loop !341

26:                                               ; preds = %17, %25
  %.0.lcssa = phi i32 [ %18, %17 ], [ %7, %25 ]
  %.not23 = icmp eq i32 %.0.lcssa, %7
  %27 = add i32 %.01930, %7
  %.not24 = icmp uge i32 %27, %14
  %or.cond.not = or i1 %.not24, %.not23
  br i1 %or.cond.not, label %_ZNK15ref_vector_coreI3app19ref_manager_wrapperIS0_11ast_managerEE4sizeEv.exit.thread, label %.preheader, !llvm.loop !340

_ZNK15ref_vector_coreI3app19ref_manager_wrapperIS0_11ast_managerEE4sizeEv.exit.thread: ; preds = %26, %9, %_ZNK15ref_vector_coreI3app19ref_manager_wrapperIS0_11ast_managerEE4sizeEv.exit26, %2, %_ZNK15ref_vector_coreI3app19ref_manager_wrapperIS0_11ast_managerEE4sizeEv.exit
  %.018 = phi i1 [ true, %_ZNK15ref_vector_coreI3app19ref_manager_wrapperIS0_11ast_managerEE4sizeEv.exit ], [ true, %2 ], [ false, %_ZNK15ref_vector_coreI3app19ref_manager_wrapperIS0_11ast_managerEE4sizeEv.exit26 ], [ false, %9 ], [ %.not23, %26 ]
  ret i1 %.018
}